target datalayout = "e-m:e-p270:32:32-p271:32:32-p272:64:64-i64:64-i128:128-f80:128-n8:16:32:64-S128"
target triple = "x86_64-unknown-linux-gnu"

%struct.alts_handshaker_client_vtable = type { ptr, ptr, ptr, ptr, ptr }
%struct.alts_grpc_handshaker_client = type { %struct.alts_handshaker_client, %struct.gpr_refcount, ptr, ptr, ptr, %struct.grpc_closure, ptr, ptr, i8, %struct.grpc_metadata_array, ptr, ptr, ptr, %struct.grpc_slice, i8, %struct.grpc_slice, ptr, i64, %struct.grpc_closure, i32, %struct.grpc_slice, %"class.absl::lts_20230802::Mutex", i8, ptr, i64, ptr }
%struct.alts_handshaker_client = type { ptr }
%struct.gpr_refcount = type { i64 }
%struct.grpc_metadata_array = type { i64, i64, ptr }
%struct.grpc_closure = type { %union.anon, ptr, ptr, %union.anon.0 }
%union.anon = type { ptr }
%union.anon.0 = type { i64 }
%struct.grpc_slice = type { ptr, %"union.grpc_slice::grpc_slice_data" }
%"union.grpc_slice::grpc_slice_data" = type { %"struct.grpc_slice::grpc_slice_data::grpc_slice_refcounted", [8 x i8] }
%"struct.grpc_slice::grpc_slice_data::grpc_slice_refcounted" = type { i64, ptr }
%"class.absl::lts_20230802::Mutex" = type { %"struct.std::atomic" }
%"struct.std::atomic" = type { %"struct.std::__atomic_base" }
%"struct.std::__atomic_base" = type { i64 }
%"class.grpc_core::DebugLocation" = type { i8 }
%struct.grpc_slice_refcount = type { %"struct.std::atomic.7", ptr }
%"struct.std::atomic.7" = type { %"struct.std::__atomic_base.8" }
%"struct.std::__atomic_base.8" = type { i64 }

; Function Attrs: mustprogress uwtable
define linkonce_odr void @_ZN19grpc_slice_refcount5UnrefEN9grpc_core13DebugLocationE(ptr noundef nonnull align 8 dereferenceable(16) %this) #4 comdat align 2 {
entry:
  %this.addr.i = alloca ptr, align 8
  %__i.addr.i = alloca i64, align 8
  %__m.addr.i = alloca i32, align 4
  %.atomictmp.i = alloca i64, align 8
  %atomic-temp.i = alloca i64, align 8
  %this.addr = alloca ptr, align 8
  %prev_refs = alloca i64, align 8
  store ptr %this, ptr %this.addr, align 8
  %this1 = load ptr, ptr %this.addr, align 8
  %ref_ = getelementptr inbounds %struct.grpc_slice_refcount, ptr %this1, i32 0, i32 0
  store ptr %ref_, ptr %this.addr.i, align 8
  store i64 1, ptr %__i.addr.i, align 8
  store i32 4, ptr %__m.addr.i, align 4
  %this1.i = load ptr, ptr %this.addr.i, align 8
  %0 = load i32, ptr %__m.addr.i, align 4
  %1 = load i64, ptr %__i.addr.i, align 8
  store i64 %1, ptr %.atomictmp.i, align 8
  switch i32 %0, label %monotonic.i [
    i32 1, label %acquire.i
    i32 2, label %acquire.i
    i32 3, label %release.i
    i32 4, label %acqrel.i
    i32 5, label %seqcst.i
  ]

monotonic.i:                                      ; preds = %entry
  %2 = load i64, ptr %.atomictmp.i, align 8
  %3 = atomicrmw sub ptr %this1.i, i64 %2 monotonic, align 8
  store i64 %3, ptr %atomic-temp.i, align 8
  br label %_ZNSt13__atomic_baseImE9fetch_subEmSt12memory_order.exit

acquire.i:                                        ; preds = %entry, %entry
  %4 = load i64, ptr %.atomictmp.i, align 8
  %5 = atomicrmw sub ptr %this1.i, i64 %4 acquire, align 8
  store i64 %5, ptr %atomic-temp.i, align 8
  br label %_ZNSt13__atomic_baseImE9fetch_subEmSt12memory_order.exit

release.i:                                        ; preds = %entry
  %6 = load i64, ptr %.atomictmp.i, align 8
  %7 = atomicrmw sub ptr %this1.i, i64 %6 release, align 8
  store i64 %7, ptr %atomic-temp.i, align 8
  br label %_ZNSt13__atomic_baseImE9fetch_subEmSt12memory_order.exit

acqrel.i:                                         ; preds = %entry
  %8 = load i64, ptr %.atomictmp.i, align 8
  %9 = atomicrmw sub ptr %this1.i, i64 %8 acq_rel, align 8
  store i64 %9, ptr %atomic-temp.i, align 8
  br label %_ZNSt13__atomic_baseImE9fetch_subEmSt12memory_order.exit

seqcst.i:                                         ; preds = %entry
  %10 = load i64, ptr %.atomictmp.i, align 8
  %11 = atomicrmw sub ptr %this1.i, i64 %10 seq_cst, align 8
  store i64 %11, ptr %atomic-temp.i, align 8
  br label %_ZNSt13__atomic_baseImE9fetch_subEmSt12memory_order.exit

_ZNSt13__atomic_baseImE9fetch_subEmSt12memory_order.exit: ; preds = %seqcst.i, %acqrel.i, %release.i, %acquire.i, %monotonic.i
  %12 = load i64, ptr %atomic-temp.i, align 8
  store i64 %12, ptr %prev_refs, align 8
  %13 = load i64, ptr %prev_refs, align 8
  %cmp = icmp eq i64 %13, 1
  br i1 %cmp, label %if.then, label %if.end

if.then:                                          ; preds = %_ZNSt13__atomic_baseImE9fetch_subEmSt12memory_order.exit
  %destroyer_fn_ = getelementptr inbounds %struct.grpc_slice_refcount, ptr %this1, i32 0, i32 1
  %14 = load ptr, ptr %destroyer_fn_, align 8
  call void %14(ptr noundef %this1)
  br label %if.end

if.end:                                           ; preds = %if.then, %_ZNSt13__atomic_baseImE9fetch_subEmSt12memory_order.exit
  ret void
}

; Function Attrs: mustprogress nounwind uwtable
define linkonce_odr void @_ZN27alts_grpc_handshaker_clientD2Ev(ptr noundef nonnull align 8 dereferenceable(344) %this) unnamed_addr #6 comdat align 2 {
entry:
  %this.addr = alloca ptr, align 8
  store ptr %this, ptr %this.addr, align 8
  %this1 = load ptr, ptr %this.addr, align 8
  %mu = getelementptr inbounds %struct.alts_grpc_handshaker_client, ptr %this1, i32 0, i32 21
  call void @_ZN4absl12lts_202308025MutexD1Ev(ptr noundef nonnull align 8 dereferenceable(8) %mu) #3
  ret void
}

; Function Attrs: mustprogress uwtable
define linkonce_odr void @_ZN9grpc_core11CSliceUnrefERK10grpc_sliceNS_13DebugLocationE(ptr noundef nonnull align 8 dereferenceable(32) %slice) #4 comdat {
entry:
  %slice.addr = alloca ptr, align 8
  store ptr %slice, ptr %slice.addr, align 8
  %0 = load ptr, ptr %slice.addr, align 8
  %refcount = getelementptr inbounds %struct.grpc_slice, ptr %0, i32 0, i32 0
  %1 = load ptr, ptr %refcount, align 8
  %2 = ptrtoint ptr %1 to i64
  %cmp = icmp ugt i64 %2, 1
  br i1 %cmp, label %if.then, label %if.end

if.then:                                          ; preds = %entry
  %3 = load ptr, ptr %slice.addr, align 8
  %refcount1 = getelementptr inbounds %struct.grpc_slice, ptr %3, i32 0, i32 0
  %4 = load ptr, ptr %refcount1, align 8
  call void @_ZN19grpc_slice_refcount5UnrefEN9grpc_core13DebugLocationE(ptr noundef nonnull align 8 dereferenceable(16) %4)
  br label %if.end

if.end:                                           ; preds = %if.then, %entry
  ret void
}

; Function Attrs: mustprogress nounwind uwtable
define linkonce_odr void @_ZN9grpc_core13DebugLocationC2Ev(ptr noundef nonnull align 1 dereferenceable(1) %this) unnamed_addr #6 comdat align 2 {
entry:
  %this.addr = alloca ptr, align 8
  store ptr %this, ptr %this.addr, align 8
  ret void
}

; Function Attrs: mustprogress uwtable
define internal void @_ZL33alts_grpc_handshaker_client_unrefP27alts_grpc_handshaker_client(ptr noundef %client) #4 {
entry:
  %client.addr = alloca ptr, align 8
  %agg.tmp = alloca %"class.grpc_core::DebugLocation", align 1
  %agg.tmp11 = alloca %"class.grpc_core::DebugLocation", align 1
  %agg.tmp12 = alloca %"class.grpc_core::DebugLocation", align 1
  store ptr %client, ptr %client.addr, align 8
  %0 = load ptr, ptr %client.addr, align 8
  %refs = getelementptr inbounds %struct.alts_grpc_handshaker_client, ptr %0, i32 0, i32 1
  %call = call i32 @gpr_unref(ptr noundef %refs)
  %tobool = icmp ne i32 %call, 0
  br i1 %tobool, label %if.then, label %if.end13

if.then:                                          ; preds = %entry
  %1 = load ptr, ptr %client.addr, align 8
  %base = getelementptr inbounds %struct.alts_grpc_handshaker_client, ptr %1, i32 0, i32 0
  %vtable = getelementptr inbounds %struct.alts_handshaker_client, ptr %base, i32 0, i32 0
  %2 = load ptr, ptr %vtable, align 8
  %cmp = icmp ne ptr %2, null
  br i1 %cmp, label %land.lhs.true, label %if.end

land.lhs.true:                                    ; preds = %if.then
  %3 = load ptr, ptr %client.addr, align 8
  %base1 = getelementptr inbounds %struct.alts_grpc_handshaker_client, ptr %3, i32 0, i32 0
  %vtable2 = getelementptr inbounds %struct.alts_handshaker_client, ptr %base1, i32 0, i32 0
  %4 = load ptr, ptr %vtable2, align 8
  %destruct = getelementptr inbounds %struct.alts_handshaker_client_vtable, ptr %4, i32 0, i32 4
  %5 = load ptr, ptr %destruct, align 8
  %cmp3 = icmp ne ptr %5, null
  br i1 %cmp3, label %if.then4, label %if.end

if.then4:                                         ; preds = %land.lhs.true
  %6 = load ptr, ptr %client.addr, align 8
  %base5 = getelementptr inbounds %struct.alts_grpc_handshaker_client, ptr %6, i32 0, i32 0
  %vtable6 = getelementptr inbounds %struct.alts_handshaker_client, ptr %base5, i32 0, i32 0
  %7 = load ptr, ptr %vtable6, align 8
  %destruct7 = getelementptr inbounds %struct.alts_handshaker_client_vtable, ptr %7, i32 0, i32 4
  %8 = load ptr, ptr %destruct7, align 8
  %9 = load ptr, ptr %client.addr, align 8
  %base8 = getelementptr inbounds %struct.alts_grpc_handshaker_client, ptr %9, i32 0, i32 0
  call void %8(ptr noundef %base8)
  br label %if.end

if.end:                                           ; preds = %if.then4, %land.lhs.true, %if.then
  %10 = load ptr, ptr %client.addr, align 8
  %send_buffer = getelementptr inbounds %struct.alts_grpc_handshaker_client, ptr %10, i32 0, i32 6
  %11 = load ptr, ptr %send_buffer, align 8
  call void @grpc_byte_buffer_destroy(ptr noundef %11)
  %12 = load ptr, ptr %client.addr, align 8
  %recv_buffer = getelementptr inbounds %struct.alts_grpc_handshaker_client, ptr %12, i32 0, i32 7
  %13 = load ptr, ptr %recv_buffer, align 8
  call void @grpc_byte_buffer_destroy(ptr noundef %13)
  %14 = load ptr, ptr %client.addr, align 8
  %send_buffer9 = getelementptr inbounds %struct.alts_grpc_handshaker_client, ptr %14, i32 0, i32 6
  store ptr null, ptr %send_buffer9, align 8
  %15 = load ptr, ptr %client.addr, align 8
  %recv_buffer10 = getelementptr inbounds %struct.alts_grpc_handshaker_client, ptr %15, i32 0, i32 7
  store ptr null, ptr %recv_buffer10, align 8
  %16 = load ptr, ptr %client.addr, align 8
  %recv_initial_metadata = getelementptr inbounds %struct.alts_grpc_handshaker_client, ptr %16, i32 0, i32 9
  call void @grpc_metadata_array_destroy(ptr noundef %recv_initial_metadata)
  %17 = load ptr, ptr %client.addr, align 8
  %recv_bytes = getelementptr inbounds %struct.alts_grpc_handshaker_client, ptr %17, i32 0, i32 15
  call void @_ZN9grpc_core13DebugLocationC2Ev(ptr noundef nonnull align 1 dereferenceable(1) %agg.tmp)
  call void @_ZN9grpc_core11CSliceUnrefERK10grpc_sliceNS_13DebugLocationE(ptr noundef nonnull align 8 dereferenceable(32) %recv_bytes)
  %18 = load ptr, ptr %client.addr, align 8
  %target_name = getelementptr inbounds %struct.alts_grpc_handshaker_client, ptr %18, i32 0, i32 13
  call void @_ZN9grpc_core13DebugLocationC2Ev(ptr noundef nonnull align 1 dereferenceable(1) %agg.tmp11)
  call void @_ZN9grpc_core11CSliceUnrefERK10grpc_sliceNS_13DebugLocationE(ptr noundef nonnull align 8 dereferenceable(32) %target_name)
  %19 = load ptr, ptr %client.addr, align 8
  %options = getelementptr inbounds %struct.alts_grpc_handshaker_client, ptr %19, i32 0, i32 12
  %20 = load ptr, ptr %options, align 8
  call void @grpc_alts_credentials_options_destroy(ptr noundef %20)
  %21 = load ptr, ptr %client.addr, align 8
  %buffer = getelementptr inbounds %struct.alts_grpc_handshaker_client, ptr %21, i32 0, i32 16
  %22 = load ptr, ptr %buffer, align 8
  call void @gpr_free(ptr noundef %22)
  %23 = load ptr, ptr %client.addr, align 8
  %handshake_status_details = getelementptr inbounds %struct.alts_grpc_handshaker_client, ptr %23, i32 0, i32 20
  call void @_ZN9grpc_core13DebugLocationC2Ev(ptr noundef nonnull align 1 dereferenceable(1) %agg.tmp12)
  call void @_ZN9grpc_core11CSliceUnrefERK10grpc_sliceNS_13DebugLocationE(ptr noundef nonnull align 8 dereferenceable(32) %handshake_status_details)
  %24 = load ptr, ptr %client.addr, align 8
  %isnull = icmp eq ptr %24, null
  br i1 %isnull, label %delete.end, label %delete.notnull

delete.notnull:                                   ; preds = %if.end
  call void @_ZN27alts_grpc_handshaker_clientD2Ev(ptr noundef nonnull align 8 dereferenceable(344) %24) #3
  call void @_ZdlPv(ptr noundef %24) #19
  br label %delete.end

delete.end:                                       ; preds = %delete.notnull, %if.end
  br label %if.end13

if.end13:                                         ; preds = %delete.end, %entry
  ret void
}