; Function Attrs: mustprogress uwtable
define internal fastcc void @_ZL33alts_grpc_handshaker_client_unrefP27alts_grpc_handshaker_client(ptr noundef %client) unnamed_addr #3 {
entry:
  %refs = getelementptr inbounds i8, ptr %client, i64 8
  %call = tail call i32 @gpr_unref(ptr noundef nonnull %refs)
  %tobool.not = icmp eq i32 %call, 0
  br i1 %tobool.not, label %if.end13, label %if.then

if.then:                                          ; preds = %entry
  %0 = load ptr, ptr %client, align 8
  %cmp.not = icmp eq ptr %0, null
  br i1 %cmp.not, label %if.end, label %land.lhs.true

land.lhs.true:                                    ; preds = %if.then
  %destruct = getelementptr inbounds i8, ptr %0, i64 32
  %1 = load ptr, ptr %destruct, align 8
  %cmp3.not = icmp eq ptr %1, null
  br i1 %cmp3.not, label %if.end, label %if.then4

if.then4:                                         ; preds = %land.lhs.true
  tail call void %1(ptr noundef nonnull %client)
  br label %if.end

if.end:                                           ; preds = %if.then4, %land.lhs.true, %if.then
  %send_buffer = getelementptr inbounds i8, ptr %client, i64 72
  %2 = load ptr, ptr %send_buffer, align 8
  tail call void @grpc_byte_buffer_destroy(ptr noundef %2)
  %recv_buffer = getelementptr inbounds i8, ptr %client, i64 80
  %3 = load ptr, ptr %recv_buffer, align 8
  tail call void @grpc_byte_buffer_destroy(ptr noundef %3)
  %recv_initial_metadata = getelementptr inbounds i8, ptr %client, i64 96
  tail call void @llvm.memset.p0.i64(ptr noundef nonnull align 8 dereferenceable(16) %send_buffer, i8 0, i64 16, i1 false)
  tail call void @grpc_metadata_array_destroy(ptr noundef nonnull %recv_initial_metadata)
  %recv_bytes = getelementptr inbounds i8, ptr %client, i64 184
  %4 = load ptr, ptr %recv_bytes, align 8
  %cmp.i = icmp ugt ptr %4, inttoptr (i64 1 to ptr)
  br i1 %cmp.i, label %if.then.i, label %_ZN9grpc_core11CSliceUnrefERK10grpc_sliceNS_13DebugLocationE.exit

if.then.i:                                        ; preds = %if.end
  %5 = atomicrmw sub ptr %4, i64 1 acq_rel, align 8
  %cmp.i.i = icmp eq i64 %5, 1
  br i1 %cmp.i.i, label %if.then.i.i, label %_ZN9grpc_core11CSliceUnrefERK10grpc_sliceNS_13DebugLocationE.exit

if.then.i.i:                                      ; preds = %if.then.i
  %destroyer_fn_.i.i = getelementptr inbounds i8, ptr %4, i64 8
  %6 = load ptr, ptr %destroyer_fn_.i.i, align 8
  tail call void %6(ptr noundef nonnull %4)
  br label %_ZN9grpc_core11CSliceUnrefERK10grpc_sliceNS_13DebugLocationE.exit

_ZN9grpc_core11CSliceUnrefERK10grpc_sliceNS_13DebugLocationE.exit: ; preds = %if.end, %if.then.i, %if.then.i.i
  %target_name = getelementptr inbounds i8, ptr %client, i64 144
  %7 = load ptr, ptr %target_name, align 8
  %cmp.i17 = icmp ugt ptr %7, inttoptr (i64 1 to ptr)
  br i1 %cmp.i17, label %if.then.i18, label %_ZN9grpc_core11CSliceUnrefERK10grpc_sliceNS_13DebugLocationE.exit22

if.then.i18:                                      ; preds = %_ZN9grpc_core11CSliceUnrefERK10grpc_sliceNS_13DebugLocationE.exit
  %8 = atomicrmw sub ptr %7, i64 1 acq_rel, align 8
  %cmp.i.i19 = icmp eq i64 %8, 1
  br i1 %cmp.i.i19, label %if.then.i.i20, label %_ZN9grpc_core11CSliceUnrefERK10grpc_sliceNS_13DebugLocationE.exit22

if.then.i.i20:                                    ; preds = %if.then.i18
  %destroyer_fn_.i.i21 = getelementptr inbounds i8, ptr %7, i64 8
  %9 = load ptr, ptr %destroyer_fn_.i.i21, align 8
  tail call void %9(ptr noundef nonnull %7)
  br label %_ZN9grpc_core11CSliceUnrefERK10grpc_sliceNS_13DebugLocationE.exit22

_ZN9grpc_core11CSliceUnrefERK10grpc_sliceNS_13DebugLocationE.exit22: ; preds = %_ZN9grpc_core11CSliceUnrefERK10grpc_sliceNS_13DebugLocationE.exit, %if.then.i18, %if.then.i.i20
  %options = getelementptr inbounds i8, ptr %client, i64 136
  %10 = load ptr, ptr %options, align 8
  tail call void @grpc_alts_credentials_options_destroy(ptr noundef %10)
  %buffer = getelementptr inbounds i8, ptr %client, i64 216
  %11 = load ptr, ptr %buffer, align 8
  tail call void @gpr_free(ptr noundef %11)
  %handshake_status_details = getelementptr inbounds i8, ptr %client, i64 272
  %12 = load ptr, ptr %handshake_status_details, align 8
  %cmp.i23 = icmp ugt ptr %12, inttoptr (i64 1 to ptr)
  br i1 %cmp.i23, label %if.then.i24, label %_ZN9grpc_core11CSliceUnrefERK10grpc_sliceNS_13DebugLocationE.exit28

if.then.i24:                                      ; preds = %_ZN9grpc_core11CSliceUnrefERK10grpc_sliceNS_13DebugLocationE.exit22
  %13 = atomicrmw sub ptr %12, i64 1 acq_rel, align 8
  %cmp.i.i25 = icmp eq i64 %13, 1
  br i1 %cmp.i.i25, label %if.then.i.i26, label %_ZN9grpc_core11CSliceUnrefERK10grpc_sliceNS_13DebugLocationE.exit28

if.then.i.i26:                                    ; preds = %if.then.i24
  %destroyer_fn_.i.i27 = getelementptr inbounds i8, ptr %12, i64 8
  %14 = load ptr, ptr %destroyer_fn_.i.i27, align 8
  tail call void %14(ptr noundef nonnull %12)
  br label %_ZN9grpc_core11CSliceUnrefERK10grpc_sliceNS_13DebugLocationE.exit28

_ZN9grpc_core11CSliceUnrefERK10grpc_sliceNS_13DebugLocationE.exit28: ; preds = %_ZN9grpc_core11CSliceUnrefERK10grpc_sliceNS_13DebugLocationE.exit22, %if.then.i24, %if.then.i.i26
  %mu.i = getelementptr inbounds i8, ptr %client, i64 304
  tail call void @_ZN4absl12lts_202308025MutexD1Ev(ptr noundef nonnull align 8 dereferenceable(8) %mu.i) #18
  tail call void @_ZdlPv(ptr noundef nonnull %client) #22
  br label %if.end13

if.end13:                                         ; preds = %_ZN9grpc_core11CSliceUnrefERK10grpc_sliceNS_13DebugLocationE.exit28, %entry
  ret void
}